; Function Attrs: nounwind sspstrong uwtable
define internal i64 @dir_s_for_fd(i64 noundef %0, i64 noundef %1) #0 {
  %3 = tail call i64 @rb_data_typed_object_zalloc(i64 noundef %0, i64 noundef 24, ptr noundef nonnull @dir_data_type) #22
  %4 = inttoptr i64 %3 to ptr
  %5 = getelementptr inbounds nuw i8, ptr %4, i64 24
  %6 = load i64, ptr %5, align 8, !tbaa !49
  %7 = and i64 %6, 2
  %.not.i = icmp eq i64 %7, 0
  %8 = getelementptr i8, ptr %4, i64 32
  br i1 %.not.i, label %9, label %RTYPEDDATA_GET_DATA.exit

9:                                                ; preds = %2
  %10 = load ptr, ptr %8, align 8, !tbaa !53
  br label %RTYPEDDATA_GET_DATA.exit

RTYPEDDATA_GET_DATA.exit:                         ; preds = %2, %9
  %11 = phi ptr [ %10, %9 ], [ %8, %2 ]
  %12 = and i64 %1, 1
  %.not.i9 = icmp eq i64 %12, 0
  br i1 %.not.i9, label %15, label %13

13:                                               ; preds = %RTYPEDDATA_GET_DATA.exit
  %14 = tail call i64 @rb_fix2int(i64 noundef %1) #22
  br label %rb_num2int_inline.exit

15:                                               ; preds = %RTYPEDDATA_GET_DATA.exit
  %16 = tail call i64 @rb_num2int(i64 noundef %1) #22
  br label %rb_num2int_inline.exit

rb_num2int_inline.exit:                           ; preds = %13, %15
  %.0.i = phi i64 [ %14, %13 ], [ %16, %15 ]
  %sext = shl i64 %.0.i, 32
  %17 = ashr exact i64 %sext, 32
  %18 = inttoptr i64 %17 to ptr
  %19 = tail call ptr @rb_nogvl(ptr noundef nonnull @nogvl_fdopendir, ptr noundef %18, ptr noundef nonnull inttoptr (i64 -1 to ptr), ptr noundef null, i32 noundef 4) #22
  store ptr %19, ptr %11, align 8, !tbaa !54
  %.not = icmp eq ptr %19, null
  br i1 %.not, label %20, label %23

20:                                               ; preds = %rb_num2int_inline.exit
  %21 = tail call ptr @rb_errno_ptr() #22
  %22 = load i32, ptr %21, align 4, !tbaa !58
  tail call void @rb_syserr_fail(i32 noundef %22, ptr noundef nonnull @.str.54) #26
  unreachable

23:                                               ; preds = %rb_num2int_inline.exit
  %24 = getelementptr inbounds nuw i8, ptr %11, i64 8
  store i64 4, ptr %24, align 8, !tbaa !7
  ret i64 %3
}